target datalayout = "e-m:e-p270:32:32-p271:32:32-p272:64:64-i64:64-i128:128-f80:128-n8:16:32:64-S128"
target triple = "x86_64-pc-linux-gnu"

%struct.auth_credential_t = type { i32, i32, ptr, i8, %struct.in_addr, i8, i32, i32, ptr, i32 }
%struct.in_addr = type { i32 }

@plugin_type = dso_local constant [11 x i8] c"auth/munge\00", align 1
@bad_cred_test = internal global i32 -1, align 4
@.str.4 = private unnamed_addr constant [25 x i8] c"munge_ctx_create failure\00", align 1
@.str.5 = private unnamed_addr constant [31 x i8] c"Failed to set MUNGE socket: %s\00", align 1
@.str.6 = private unnamed_addr constant [34 x i8] c"Failed to set uid restriction: %s\00", align 1
@.str.7 = private unnamed_addr constant [28 x i8] c"Failed to set MUNGE ttl: %s\00", align 1
@.str.8 = private unnamed_addr constant [13 x i8] c"auth_munge.c\00", align 1
@__func__.auth_p_create = private unnamed_addr constant [14 x i8] c"auth_p_create\00", align 1
@.str.9 = private unnamed_addr constant [47 x i8] c"%s: %s: Munge encode failed: %s (retrying ...)\00", align 1
@.str.10 = private unnamed_addr constant [47 x i8] c"If munged is up, restart with --num-threads=10\00", align 1
@.str.11 = private unnamed_addr constant [24 x i8] c"Munge encode failed: %s\00", align 1

; Function Attrs: nounwind uwtable
define dso_local ptr @auth_p_create(ptr noundef %0, i32 noundef %1, ptr noundef %2, i32 noundef %3) #0 {
  %5 = alloca ptr, align 8
  %6 = alloca ptr, align 8
  %7 = alloca i32, align 4
  %8 = alloca ptr, align 8
  %9 = alloca i32, align 4
  %10 = alloca i32, align 4
  %11 = alloca i32, align 4
  %12 = alloca i32, align 4
  %13 = alloca ptr, align 8
  %14 = alloca i32, align 4
  %15 = alloca ptr, align 8
  %16 = alloca ptr, align 8
  %17 = alloca ptr, align 8
  %18 = alloca i32, align 4
  %19 = alloca i32, align 4
  store ptr %0, ptr %6, align 8
  store i32 %1, ptr %7, align 4
  store ptr %2, ptr %8, align 8
  store i32 %3, ptr %9, align 4
  call void @llvm.lifetime.start.p0(i64 4, ptr %10) #9
  call void @llvm.lifetime.start.p0(i64 4, ptr %11) #9
  store i32 20, ptr %11, align 4
  call void @llvm.lifetime.start.p0(i64 4, ptr %12) #9
  call void @llvm.lifetime.start.p0(i64 8, ptr %13) #9
  store ptr null, ptr %13, align 8
  call void @llvm.lifetime.start.p0(i64 4, ptr %14) #9
  store i32 0, ptr %14, align 4
  call void @llvm.lifetime.start.p0(i64 8, ptr %15) #9
  %20 = call ptr @munge_ctx_create()
  store ptr %20, ptr %15, align 8
  call void @llvm.lifetime.start.p0(i64 8, ptr %16) #9
  call void @llvm.lifetime.start.p0(i64 8, ptr %17) #9
  %21 = load ptr, ptr %15, align 8
  %22 = icmp ne ptr %21, null
  br i1 %22, label %25, label %23

23:                                               ; preds = %4
  %24 = call i32 (ptr, ...) @slurm_error(ptr noundef @.str.4)
  store ptr null, ptr %5, align 8
  store i32 1, ptr %18, align 4
  br label %157

25:                                               ; preds = %4
  %26 = load ptr, ptr %6, align 8
  %27 = icmp ne ptr %26, null
  br i1 %27, label %28, label %42

28:                                               ; preds = %25
  %29 = load ptr, ptr %6, align 8
  %30 = call ptr @slurm_auth_opts_to_socket(ptr noundef %29)
  store ptr %30, ptr %17, align 8
  %31 = load ptr, ptr %15, align 8
  %32 = load ptr, ptr %17, align 8
  %33 = call i32 (ptr, i32, ...) @munge_ctx_set(ptr noundef %31, i32 noundef 8, ptr noundef %32)
  store i32 %33, ptr %10, align 4
  call void @slurm_xfree(ptr noundef %17)
  %34 = load i32, ptr %10, align 4
  %35 = icmp ne i32 %34, 0
  br i1 %35, label %36, label %41

36:                                               ; preds = %28
  %37 = load ptr, ptr %15, align 8
  %38 = call ptr @munge_ctx_strerror(ptr noundef %37)
  %39 = call i32 (ptr, ...) @slurm_error(ptr noundef @.str.5, ptr noundef %38)
  %40 = load ptr, ptr %15, align 8
  call void @munge_ctx_destroy(ptr noundef %40)
  store ptr null, ptr %5, align 8
  store i32 1, ptr %18, align 4
  br label %157

41:                                               ; preds = %28
  br label %42

42:                                               ; preds = %41, %25
  %43 = load ptr, ptr %15, align 8
  %44 = load i32, ptr %7, align 4
  %45 = call i32 (ptr, i32, ...) @munge_ctx_set(ptr noundef %43, i32 noundef 9, i32 noundef %44)
  store i32 %45, ptr %10, align 4
  %46 = load i32, ptr %10, align 4
  %47 = icmp ne i32 %46, 0
  br i1 %47, label %48, label %53

48:                                               ; preds = %42
  %49 = load ptr, ptr %15, align 8
  %50 = call ptr @munge_ctx_strerror(ptr noundef %49)
  %51 = call i32 (ptr, ...) @slurm_error(ptr noundef @.str.6, ptr noundef %50)
  %52 = load ptr, ptr %15, align 8
  call void @munge_ctx_destroy(ptr noundef %52)
  store ptr null, ptr %5, align 8
  store i32 1, ptr %18, align 4
  br label %157

53:                                               ; preds = %42
  %54 = call i32 @slurm_get_auth_ttl()
  store i32 %54, ptr %12, align 4
  %55 = load i32, ptr %12, align 4
  %56 = icmp ne i32 %55, 0
  br i1 %56, label %57, label %69

57:                                               ; preds = %53
  %58 = load ptr, ptr %15, align 8
  %59 = load i32, ptr %12, align 4
  %60 = call i32 (ptr, i32, ...) @munge_ctx_set(ptr noundef %58, i32 noundef 4, i32 noundef %59)
  store i32 %60, ptr %10, align 4
  %61 = load i32, ptr %10, align 4
  %62 = icmp ne i32 %61, 0
  br i1 %62, label %63, label %68

63:                                               ; preds = %57
  %64 = load ptr, ptr %15, align 8
  %65 = call ptr @munge_ctx_strerror(ptr noundef %64)
  %66 = call i32 (ptr, ...) @slurm_error(ptr noundef @.str.7, ptr noundef %65)
  %67 = load ptr, ptr %15, align 8
  call void @munge_ctx_destroy(ptr noundef %67)
  store ptr null, ptr %5, align 8
  store i32 1, ptr %18, align 4
  br label %157

68:                                               ; preds = %57
  br label %69

69:                                               ; preds = %68, %53
  %70 = call ptr @slurm_xcalloc(i64 noundef 1, i64 noundef 56, i1 noundef zeroext true, i1 noundef zeroext false, ptr noundef @.str.8, i32 noundef 219, ptr noundef @__func__.auth_p_create)
  store ptr %70, ptr %13, align 8
  %71 = load ptr, ptr %13, align 8
  %72 = getelementptr inbounds nuw %struct.auth_credential_t, ptr %71, i32 0, i32 1
  store i32 65261, ptr %72, align 4
  %73 = load ptr, ptr %13, align 8
  %74 = getelementptr inbounds nuw %struct.auth_credential_t, ptr %73, i32 0, i32 5
  store i8 0, ptr %74, align 8
  %75 = load ptr, ptr %13, align 8
  %76 = getelementptr inbounds nuw %struct.auth_credential_t, ptr %75, i32 0, i32 2
  store ptr null, ptr %76, align 8
  %77 = load ptr, ptr %13, align 8
  %78 = getelementptr inbounds nuw %struct.auth_credential_t, ptr %77, i32 0, i32 3
  store i8 0, ptr %78, align 8
  %79 = load ptr, ptr %13, align 8
  %80 = getelementptr inbounds nuw %struct.auth_credential_t, ptr %79, i32 0, i32 8
  store ptr null, ptr %80, align 8
  %81 = load ptr, ptr %13, align 8
  %82 = getelementptr inbounds nuw %struct.auth_credential_t, ptr %81, i32 0, i32 9
  store i32 0, ptr %82, align 8
  %83 = call ptr @slurm_xsignal(i32 noundef 14, ptr noundef null)
  store ptr %83, ptr %16, align 8
  br label %84

84:                                               ; preds = %112, %69
  %85 = load ptr, ptr %13, align 8
  %86 = getelementptr inbounds nuw %struct.auth_credential_t, ptr %85, i32 0, i32 2
  %87 = load ptr, ptr %15, align 8
  %88 = load ptr, ptr %8, align 8
  %89 = load i32, ptr %9, align 4
  %90 = call i32 @munge_encode(ptr noundef %86, ptr noundef %87, ptr noundef %88, i32 noundef %89)
  store i32 %90, ptr %14, align 4
  %91 = load i32, ptr %14, align 4
  %92 = icmp ne i32 %91, 0
  br i1 %92, label %93, label %124

93:                                               ; preds = %84
  %94 = load i32, ptr %14, align 4
  %95 = icmp eq i32 %94, 6
  br i1 %95, label %96, label %114

96:                                               ; preds = %93
  %97 = load i32, ptr %11, align 4
  %98 = add nsw i32 %97, -1
  store i32 %98, ptr %11, align 4
  %99 = icmp ne i32 %97, 0
  br i1 %99, label %100, label %114

100:                                              ; preds = %96
  br label %101

101:                                              ; preds = %100
  br label %102

102:                                              ; preds = %101
  %103 = call i32 @slurm_get_log_level()
  %104 = icmp sge i32 %103, 5
  br i1 %104, label %105, label %108

105:                                              ; preds = %102
  %106 = load ptr, ptr %15, align 8
  %107 = call ptr @munge_ctx_strerror(ptr noundef %106)
  call void (i32, ptr, ...) @slurm_log_var(i32 noundef 5, ptr noundef @.str.9, ptr noundef @plugin_type, ptr noundef @__func__.auth_p_create, ptr noundef %107)
  br label %108

108:                                              ; preds = %105, %102
  br label %109

109:                                              ; preds = %108
  br label %110

110:                                              ; preds = %109
  br label %111

111:                                              ; preds = %110
  br label %112

112:                                              ; preds = %111
  %113 = call i32 @usleep(i32 noundef 100000)
  br label %84

114:                                              ; preds = %96, %93
  %115 = load i32, ptr %14, align 4
  %116 = icmp eq i32 %115, 6
  br i1 %116, label %117, label %119

117:                                              ; preds = %114
  %118 = call i32 (ptr, ...) @slurm_error(ptr noundef @.str.10)
  br label %119

119:                                              ; preds = %117, %114
  %120 = load ptr, ptr %15, align 8
  %121 = call ptr @munge_ctx_strerror(ptr noundef %120)
  %122 = call i32 (ptr, ...) @slurm_error(ptr noundef @.str.11, ptr noundef %121)
  call void @slurm_xfree(ptr noundef %13)
  store ptr null, ptr %13, align 8
  %123 = call ptr @__errno_location() #11
  store i32 6000, ptr %123, align 4
  br label %152

124:                                              ; preds = %84
  %125 = load i32, ptr @bad_cred_test, align 4
  %126 = icmp sgt i32 %125, 0
  br i1 %126, label %127, label %151

127:                                              ; preds = %124
  %128 = load ptr, ptr %13, align 8
  %129 = getelementptr inbounds nuw %struct.auth_credential_t, ptr %128, i32 0, i32 2
  %130 = load ptr, ptr %129, align 8
  %131 = icmp ne ptr %130, null
  br i1 %131, label %132, label %151

132:                                              ; preds = %127
  call void @llvm.lifetime.start.p0(i64 4, ptr %19) #9
  %133 = call i64 @time(ptr noundef null) #9
  %134 = trunc i64 %133 to i32
  %135 = sext i32 %134 to i64
  %136 = load ptr, ptr %13, align 8
  %137 = getelementptr inbounds nuw %struct.auth_credential_t, ptr %136, i32 0, i32 2
  %138 = load ptr, ptr %137, align 8
  %139 = call i64 @strlen(ptr noundef %138) #10
  %140 = sub i64 %139, 4
  %141 = urem i64 %135, %140
  %142 = trunc i64 %141 to i32
  store i32 %142, ptr %19, align 4
  %143 = load ptr, ptr %13, align 8
  %144 = getelementptr inbounds nuw %struct.auth_credential_t, ptr %143, i32 0, i32 2
  %145 = load ptr, ptr %144, align 8
  %146 = load i32, ptr %19, align 4
  %147 = sext i32 %146 to i64
  %148 = getelementptr inbounds i8, ptr %145, i64 %147
  %149 = load i8, ptr %148, align 1
  %150 = add i8 %149, 1
  store i8 %150, ptr %148, align 1
  call void @llvm.lifetime.end.p0(i64 4, ptr %19) #9
  br label %151

151:                                              ; preds = %132, %127, %124
  br label %152

152:                                              ; preds = %151, %119
  %153 = load ptr, ptr %16, align 8
  %154 = call ptr @slurm_xsignal(i32 noundef 14, ptr noundef %153)
  %155 = load ptr, ptr %15, align 8
  call void @munge_ctx_destroy(ptr noundef %155)
  %156 = load ptr, ptr %13, align 8
  store ptr %156, ptr %5, align 8
  store i32 1, ptr %18, align 4
  br label %157

157:                                              ; preds = %152, %63, %48, %36, %23
  call void @llvm.lifetime.end.p0(i64 8, ptr %17) #9
  call void @llvm.lifetime.end.p0(i64 8, ptr %16) #9
  call void @llvm.lifetime.end.p0(i64 8, ptr %15) #9
  call void @llvm.lifetime.end.p0(i64 4, ptr %14) #9
  call void @llvm.lifetime.end.p0(i64 8, ptr %13) #9
  call void @llvm.lifetime.end.p0(i64 4, ptr %12) #9
  call void @llvm.lifetime.end.p0(i64 4, ptr %11) #9
  call void @llvm.lifetime.end.p0(i64 4, ptr %10) #9
  %158 = load ptr, ptr %5, align 8
  ret ptr %158
}