; Function Attrs: nounwind uwtable
define dso_local ptr @auth_p_create(ptr noundef %0, i32 noundef %1, ptr noundef %2, i32 noundef %3) local_unnamed_addr #0 {
  %5 = alloca ptr, align 8
  %6 = alloca ptr, align 8
  call void @llvm.lifetime.start.p0(i64 8, ptr nonnull %5) #13
  %7 = tail call ptr @munge_ctx_create() #13
  call void @llvm.lifetime.start.p0(i64 8, ptr nonnull %6) #13
  %.not = icmp eq ptr %7, null
  br i1 %.not, label %8, label %10

8:                                                ; preds = %4
  %9 = tail call i32 (ptr, ...) @slurm_error(ptr noundef nonnull @.str.4) #13
  br label %73

10:                                               ; preds = %4
  %.not35 = icmp eq ptr %0, null
  br i1 %.not35, label %17, label %11

11:                                               ; preds = %10
  %12 = tail call ptr @slurm_auth_opts_to_socket(ptr noundef nonnull %0) #13
  store ptr %12, ptr %6, align 8
  %13 = tail call i32 (ptr, i32, ...) @munge_ctx_set(ptr noundef nonnull %7, i32 noundef 8, ptr noundef %12) #13
  call void @slurm_xfree(ptr noundef nonnull %6) #13
  %.not36 = icmp eq i32 %13, 0
  br i1 %.not36, label %17, label %14

14:                                               ; preds = %11
  %15 = call ptr @munge_ctx_strerror(ptr noundef nonnull %7) #13
  %16 = call i32 (ptr, ...) @slurm_error(ptr noundef nonnull @.str.5, ptr noundef %15) #13
  call void @munge_ctx_destroy(ptr noundef nonnull %7) #13
  br label %73

17:                                               ; preds = %11, %10
  %18 = call i32 (ptr, i32, ...) @munge_ctx_set(ptr noundef nonnull %7, i32 noundef 9, i32 noundef %1) #13
  %.not37 = icmp eq i32 %18, 0
  br i1 %.not37, label %22, label %19

19:                                               ; preds = %17
  %20 = call ptr @munge_ctx_strerror(ptr noundef nonnull %7) #13
  %21 = call i32 (ptr, ...) @slurm_error(ptr noundef nonnull @.str.6, ptr noundef %20) #13
  call void @munge_ctx_destroy(ptr noundef nonnull %7) #13
  br label %73

22:                                               ; preds = %17
  %23 = call i32 @slurm_get_auth_ttl() #13
  %.not38 = icmp eq i32 %23, 0
  br i1 %.not38, label %29, label %24

24:                                               ; preds = %22
  %25 = call i32 (ptr, i32, ...) @munge_ctx_set(ptr noundef nonnull %7, i32 noundef 4, i32 noundef %23) #13
  %.not39 = icmp eq i32 %25, 0
  br i1 %.not39, label %29, label %26

26:                                               ; preds = %24
  %27 = call ptr @munge_ctx_strerror(ptr noundef nonnull %7) #13
  %28 = call i32 (ptr, ...) @slurm_error(ptr noundef nonnull @.str.7, ptr noundef %27) #13
  call void @munge_ctx_destroy(ptr noundef nonnull %7) #13
  br label %73

29:                                               ; preds = %24, %22
  %30 = call ptr @slurm_xcalloc(i64 noundef 1, i64 noundef 56, i1 noundef zeroext true, i1 noundef zeroext false, ptr noundef nonnull @.str.8, i32 noundef 219, ptr noundef nonnull @__func__.auth_p_create) #13
  store ptr %30, ptr %5, align 8
  %31 = getelementptr inbounds nuw i8, ptr %30, i64 4
  store i32 65261, ptr %31, align 4
  %32 = getelementptr inbounds nuw i8, ptr %30, i64 24
  store i8 0, ptr %32, align 8
  %33 = getelementptr inbounds nuw i8, ptr %30, i64 8
  store ptr null, ptr %33, align 8
  %34 = getelementptr inbounds nuw i8, ptr %30, i64 16
  store i8 0, ptr %34, align 8
  %35 = getelementptr inbounds nuw i8, ptr %30, i64 40
  store ptr null, ptr %35, align 8
  %36 = getelementptr inbounds nuw i8, ptr %30, i64 48
  store i32 0, ptr %36, align 8
  %37 = call ptr @slurm_xsignal(i32 noundef 14, ptr noundef null) #13
  br label %38

38:                                               ; preds = %47, %29
  %.030 = phi i32 [ 20, %29 ], [ %41, %47 ]
  %39 = call i32 @munge_encode(ptr noundef nonnull %33, ptr noundef nonnull %7, ptr noundef %2, i32 noundef %3) #13
  switch i32 %39, label %.critedge [
    i32 0, label %54
    i32 6, label %40
  ]

40:                                               ; preds = %38
  %41 = add nsw i32 %.030, -1
  %.not43 = icmp eq i32 %.030, 0
  br i1 %.not43, label %49, label %42

42:                                               ; preds = %40
  %43 = call i32 @slurm_get_log_level() #13
  %44 = icmp sgt i32 %43, 4
  br i1 %44, label %45, label %47

45:                                               ; preds = %42
  %46 = call ptr @munge_ctx_strerror(ptr noundef nonnull %7) #13
  call void (i32, ptr, ...) @slurm_log_var(i32 noundef 5, ptr noundef nonnull @.str.9, ptr noundef nonnull @plugin_type, ptr noundef nonnull @__func__.auth_p_create, ptr noundef %46) #13
  br label %47

47:                                               ; preds = %45, %42
  %48 = call i32 @usleep(i32 noundef 100000) #13
  br label %38

49:                                               ; preds = %40
  %50 = call i32 (ptr, ...) @slurm_error(ptr noundef nonnull @.str.10) #13
  br label %.critedge

.critedge:                                        ; preds = %38, %49
  %51 = call ptr @munge_ctx_strerror(ptr noundef nonnull %7) #13
  %52 = call i32 (ptr, ...) @slurm_error(ptr noundef nonnull @.str.11, ptr noundef %51) #13
  call void @slurm_xfree(ptr noundef nonnull %5) #13
  store ptr null, ptr %5, align 8
  %53 = tail call ptr @__errno_location() #14
  store i32 6000, ptr %53, align 4
  br label %70

54:                                               ; preds = %38
  %55 = load i32, ptr @bad_cred_test, align 4
  %56 = icmp sgt i32 %55, 0
  br i1 %56, label %57, label %70

57:                                               ; preds = %54
  %58 = load ptr, ptr %33, align 8
  %.not41 = icmp eq ptr %58, null
  br i1 %.not41, label %70, label %59

59:                                               ; preds = %57
  %60 = call i64 @time(ptr noundef null) #13
  %sext = shl i64 %60, 32
  %61 = ashr exact i64 %sext, 32
  %62 = load ptr, ptr %33, align 8
  %63 = call i64 @strlen(ptr noundef nonnull dereferenceable(1) %62) #15
  %64 = add i64 %63, -4
  %65 = urem i64 %61, %64
  %sext42 = shl i64 %65, 32
  %66 = ashr exact i64 %sext42, 32
  %67 = getelementptr inbounds i8, ptr %62, i64 %66
  %68 = load i8, ptr %67, align 1
  %69 = add i8 %68, 1
  store i8 %69, ptr %67, align 1
  br label %70

70:                                               ; preds = %54, %57, %59, %.critedge
  %71 = call ptr @slurm_xsignal(i32 noundef 14, ptr noundef %37) #13
  call void @munge_ctx_destroy(ptr noundef nonnull %7) #13
  %72 = load ptr, ptr %5, align 8
  br label %73

73:                                               ; preds = %70, %26, %19, %14, %8
  %.0 = phi ptr [ null, %14 ], [ null, %19 ], [ null, %26 ], [ %72, %70 ], [ null, %8 ]
  call void @llvm.lifetime.end.p0(i64 8, ptr nonnull %6) #13
  call void @llvm.lifetime.end.p0(i64 8, ptr nonnull %5) #13
  ret ptr %.0
}